; Function Attrs: mustprogress nofree norecurse nosync nounwind willreturn memory(argmem: read) uwtable
define noundef i64 @_ZN10duckdb_hll12sdsAllocSizeEPc(ptr noundef readonly captures(none) %0) local_unnamed_addr #13 {
  %2 = getelementptr inbounds i8, ptr %0, i64 -1
  %3 = load i8, ptr %2, align 1, !tbaa !20
  %4 = zext i8 %3 to i32
  %5 = and i32 %4, 7
  switch i32 %5, label %_ZN10duckdb_hllL8sdsallocEPc.exit [
    i32 0, label %6
    i32 1, label %9
    i32 2, label %13
    i32 3, label %17
    i32 4, label %21
  ]

6:                                                ; preds = %1
  %7 = lshr i32 %4, 3
  %8 = zext nneg i32 %7 to i64
  br label %_ZN10duckdb_hllL8sdsallocEPc.exit

9:                                                ; preds = %1
  %10 = getelementptr inbounds i8, ptr %0, i64 -3
  %11 = load i8, ptr %10, align 1, !tbaa !7
  %12 = zext i8 %11 to i64
  br label %_ZN10duckdb_hllL8sdsallocEPc.exit

13:                                               ; preds = %1
  %14 = getelementptr inbounds i8, ptr %0, i64 -4
  %15 = load i16, ptr %14, align 1, !tbaa !11
  %16 = zext i16 %15 to i64
  br label %_ZN10duckdb_hllL8sdsallocEPc.exit

17:                                               ; preds = %1
  %18 = getelementptr inbounds i8, ptr %0, i64 -6
  %19 = load i32, ptr %18, align 1, !tbaa !15
  %20 = zext i32 %19 to i64
  br label %_ZN10duckdb_hllL8sdsallocEPc.exit

21:                                               ; preds = %1
  %22 = getelementptr inbounds i8, ptr %0, i64 -10
  %23 = load i64, ptr %22, align 1, !tbaa !19
  br label %_ZN10duckdb_hllL8sdsallocEPc.exit

_ZN10duckdb_hllL8sdsallocEPc.exit:                ; preds = %1, %6, %9, %13, %17, %21
  %.0.i = phi i64 [ %23, %21 ], [ %20, %17 ], [ %16, %13 ], [ %12, %9 ], [ %8, %6 ], [ 0, %1 ]
  %24 = and i8 %3, 7
  %25 = icmp samesign ult i8 %24, 5
  br i1 %25, label %switch.lookup, label %_ZN10duckdb_hllL10sdsHdrSizeEc.exit

switch.lookup:                                    ; preds = %_ZN10duckdb_hllL8sdsallocEPc.exit
  %26 = zext nneg i8 %24 to i64
  %switch.gep = getelementptr inbounds nuw [5 x i64], ptr @switch.table._ZN10duckdb_hll11sdssplitlenEPKclS1_iPi.2, i64 0, i64 %26
  %switch.load = load i64, ptr %switch.gep, align 8
  br label %_ZN10duckdb_hllL10sdsHdrSizeEc.exit

_ZN10duckdb_hllL10sdsHdrSizeEc.exit:              ; preds = %_ZN10duckdb_hllL8sdsallocEPc.exit, %switch.lookup
  %.0.i2 = phi i64 [ %switch.load, %switch.lookup ], [ 0, %_ZN10duckdb_hllL8sdsallocEPc.exit ]
  %27 = add i64 %.0.i, 1
  %28 = add i64 %27, %.0.i2
  ret i64 %28
}